; Function Attrs: mustprogress uwtable
define noundef i32 @_ZNK6casadi9Transpose10sp_reverseEPPyS2_PxS1_(ptr noundef nonnull align 8 dereferenceable(64) %0, ptr noundef readonly captures(none) %1, ptr noundef readonly captures(none) %2, ptr noundef captures(none) %3, ptr readnone captures(none) %4) unnamed_addr #3 align 2 {
  %6 = load ptr, ptr %1, align 8, !tbaa !63
  %7 = load ptr, ptr %2, align 8, !tbaa !63
  %8 = load ptr, ptr %0, align 8, !tbaa !3
  %9 = getelementptr inbounds nuw i8, ptr %8, i64 392
  %10 = load ptr, ptr %9, align 8
  %11 = tail call noundef nonnull align 8 dereferenceable(8) ptr %10(ptr noundef nonnull align 8 dereferenceable(64) %0, i64 noundef 0)
  %12 = tail call noundef i64 @_ZNK6casadi8Sparsity3nnzEv(ptr noundef nonnull align 8 dereferenceable(8) %11)
  %13 = getelementptr inbounds nuw i8, ptr %0, i64 32
  %14 = getelementptr inbounds nuw i8, ptr %0, i64 40
  %15 = load ptr, ptr %14, align 8, !tbaa !44
  %16 = load ptr, ptr %13, align 8, !tbaa !47
  %.not.i.i.i.not = icmp eq ptr %15, %16
  br i1 %.not.i.i.i.not, label %17, label %_ZNK6casadi6MXNode3depEx.exit

17:                                               ; preds = %5
  tail call void (ptr, ...) @_ZSt24__throw_out_of_range_fmtPKcz(ptr noundef nonnull @.str.22, i64 noundef 0, i64 noundef 0) #24
  unreachable

_ZNK6casadi6MXNode3depEx.exit:                    ; preds = %5
  %18 = tail call noundef nonnull align 8 dereferenceable(8) ptr @_ZNK6casadi2MX8sparsityEv(ptr noundef nonnull align 8 dereferenceable(8) %16)
  %19 = tail call noundef ptr @_ZNK6casadi8Sparsity3rowEv(ptr noundef nonnull align 8 dereferenceable(8) %18)
  %20 = getelementptr inbounds nuw i8, ptr %0, i64 56
  %21 = tail call noundef ptr @_ZNK6casadi8Sparsity6colindEv(ptr noundef nonnull align 8 dereferenceable(8) %20)
  %22 = tail call noundef i64 @_ZNK6casadi8Sparsity5size2Ev(ptr noundef nonnull align 8 dereferenceable(8) %20)
  %23 = getelementptr inbounds i64, ptr %21, i64 %22
  %24 = getelementptr inbounds nuw i8, ptr %23, i64 8
  %.not.i.i.i.i.i = icmp eq ptr %24, %21
  br i1 %.not.i.i.i.i.i, label %_ZSt4copyIPKxPxET0_T_S4_S3_.exit, label %25

25:                                               ; preds = %_ZNK6casadi6MXNode3depEx.exit
  %26 = ptrtoint ptr %24 to i64
  %27 = ptrtoint ptr %21 to i64
  %28 = sub i64 %26, %27
  tail call void @llvm.memmove.p0.p0.i64(ptr align 8 %3, ptr align 8 %21, i64 %28, i1 false)
  br label %_ZSt4copyIPKxPxET0_T_S4_S3_.exit

_ZSt4copyIPKxPxET0_T_S4_S3_.exit:                 ; preds = %_ZNK6casadi6MXNode3depEx.exit, %25
  %29 = icmp sgt i64 %12, 0
  br i1 %29, label %.lr.ph, label %._crit_edge

._crit_edge:                                      ; preds = %.lr.ph, %_ZSt4copyIPKxPxET0_T_S4_S3_.exit
  ret i32 0

.lr.ph:                                           ; preds = %_ZSt4copyIPKxPxET0_T_S4_S3_.exit, %.lr.ph
  %.020 = phi ptr [ %37, %.lr.ph ], [ %6, %_ZSt4copyIPKxPxET0_T_S4_S3_.exit ]
  %.01619 = phi i64 [ %40, %.lr.ph ], [ 0, %_ZSt4copyIPKxPxET0_T_S4_S3_.exit ]
  %.01718 = phi ptr [ %30, %.lr.ph ], [ %19, %_ZSt4copyIPKxPxET0_T_S4_S3_.exit ]
  %30 = getelementptr inbounds nuw i8, ptr %.01718, i64 8
  %31 = load i64, ptr %.01718, align 8, !tbaa !52
  %32 = getelementptr inbounds i64, ptr %3, i64 %31
  %33 = load i64, ptr %32, align 8, !tbaa !52
  %34 = add nsw i64 %33, 1
  store i64 %34, ptr %32, align 8, !tbaa !52
  %35 = getelementptr inbounds i64, ptr %7, i64 %33
  %36 = load i64, ptr %35, align 8, !tbaa !52
  %37 = getelementptr inbounds nuw i8, ptr %.020, i64 8
  %38 = load i64, ptr %.020, align 8, !tbaa !52
  %39 = or i64 %38, %36
  store i64 %39, ptr %.020, align 8, !tbaa !52
  store i64 0, ptr %35, align 8, !tbaa !52
  %40 = add nuw nsw i64 %.01619, 1
  %exitcond.not = icmp eq i64 %40, %12
  br i1 %exitcond.not, label %._crit_edge, label %.lr.ph, !llvm.loop !66
}